target datalayout = "e-m:e-p270:32:32-p271:32:32-p272:64:64-i64:64-i128:128-f80:128-n8:16:32:64-S128"
target triple = "x86_64-pc-linux-gnu"

%struct.lean_object = type { i32, i32 }
%struct.lean_ctor_object = type { %struct.lean_object, [0 x ptr] }

; Function Attrs: inlinehint nounwind uwtable
define internal ptr @lean_to_ctor(ptr noundef %0) #0 {
  %2 = alloca ptr, align 8
  store ptr %0, ptr %2, align 8, !tbaa !4
  %3 = load ptr, ptr %2, align 8, !tbaa !4
  ret ptr %3
}

; Function Attrs: inlinehint nounwind uwtable
define internal ptr @lean_ctor_obj_cptr(ptr noundef %0) #0 {
  %2 = alloca ptr, align 8
  store ptr %0, ptr %2, align 8, !tbaa !4
  %3 = load ptr, ptr %2, align 8, !tbaa !4
  %4 = call ptr @lean_to_ctor(ptr noundef %3)
  %5 = getelementptr inbounds nuw %struct.lean_ctor_object, ptr %4, i32 0, i32 1
  %6 = getelementptr inbounds [0 x ptr], ptr %5, i64 0, i64 0
  ret ptr %6
}

; Function Attrs: alwaysinline nounwind uwtable
define internal void @lean_dec_ref(ptr noundef %0) #1 {
  %2 = alloca ptr, align 8
  store ptr %0, ptr %2, align 8, !tbaa !4
  %3 = load ptr, ptr %2, align 8, !tbaa !4
  %4 = getelementptr inbounds nuw %struct.lean_object, ptr %3, i32 0, i32 0
  %5 = load i32, ptr %4, align 4, !tbaa !13
  %6 = icmp sgt i32 %5, 1
  %7 = zext i1 %6 to i32
  %8 = sext i32 %7 to i64
  %9 = call i64 @llvm.expect.i64(i64 %8, i64 1)
  %10 = icmp ne i64 %9, 0
  br i1 %10, label %11, label %16

11:                                               ; preds = %1
  %12 = load ptr, ptr %2, align 8, !tbaa !4
  %13 = getelementptr inbounds nuw %struct.lean_object, ptr %12, i32 0, i32 0
  %14 = load i32, ptr %13, align 4, !tbaa !13
  %15 = add i32 %14, -1
  store i32 %15, ptr %13, align 4, !tbaa !13
  br label %24

16:                                               ; preds = %1
  %17 = load ptr, ptr %2, align 8, !tbaa !4
  %18 = getelementptr inbounds nuw %struct.lean_object, ptr %17, i32 0, i32 0
  %19 = load i32, ptr %18, align 4, !tbaa !13
  %20 = icmp ne i32 %19, 0
  br i1 %20, label %21, label %23

21:                                               ; preds = %16
  %22 = load ptr, ptr %2, align 8, !tbaa !4
  call void @lean_dec_ref_cold(ptr noundef %22)
  br label %23

23:                                               ; preds = %21, %16
  br label %24

24:                                               ; preds = %23, %11
  ret void
}

; Function Attrs: alwaysinline nounwind uwtable
define internal zeroext i1 @lean_is_scalar(ptr noundef %0) #1 {
  %2 = alloca ptr, align 8
  store ptr %0, ptr %2, align 8, !tbaa !4
  %3 = load ptr, ptr %2, align 8, !tbaa !4
  %4 = ptrtoint ptr %3 to i64
  %5 = and i64 %4, 1
  %6 = icmp eq i64 %5, 1
  ret i1 %6
}

; Function Attrs: inlinehint nounwind uwtable
define internal i64 @lean_ctor_get_usize(ptr noundef %0, i32 noundef %1) #0 {
  %3 = alloca ptr, align 8
  %4 = alloca i32, align 4
  store ptr %0, ptr %3, align 8, !tbaa !4
  store i32 %1, ptr %4, align 4, !tbaa !11
  %5 = load ptr, ptr %3, align 8, !tbaa !4
  %6 = call ptr @lean_ctor_obj_cptr(ptr noundef %5)
  %7 = load i32, ptr %4, align 4, !tbaa !11
  %8 = zext i32 %7 to i64
  %9 = getelementptr inbounds nuw ptr, ptr %6, i64 %8
  %10 = load i64, ptr %9, align 8, !tbaa !8
  ret i64 %10
}

; Function Attrs: alwaysinline nounwind uwtable
define internal void @lean_dec(ptr noundef %0) #1 {
  %2 = alloca ptr, align 8
  store ptr %0, ptr %2, align 8, !tbaa !4
  %3 = load ptr, ptr %2, align 8, !tbaa !4
  %4 = call zeroext i1 @lean_is_scalar(ptr noundef %3)
  br i1 %4, label %7, label %5

5:                                                ; preds = %1
  %6 = load ptr, ptr %2, align 8, !tbaa !4
  call void @lean_dec_ref(ptr noundef %6)
  br label %7

7:                                                ; preds = %5, %1
  ret void
}

; Function Attrs: inlinehint nounwind uwtable
define internal i64 @lean_unbox_usize(ptr noundef %0) #0 {
  %2 = alloca ptr, align 8
  store ptr %0, ptr %2, align 8, !tbaa !4
  %3 = load ptr, ptr %2, align 8, !tbaa !4
  %4 = call i64 @lean_ctor_get_usize(ptr noundef %3, i32 noundef 0)
  ret i64 %4
}

; Function Attrs: nounwind uwtable
define ptr @l_Array_forIn_x27Unsafe_loop___at___private_Lean_Meta_Tactic_Grind_Arith_Cutsat_LeCnstr_0__Lean_Meta_Grind_Arith_Cutsat_findEq___spec__15___boxed(ptr noundef %0) #2 {
  %2 = alloca ptr, align 8
  %3 = alloca ptr, align 8
  %4 = alloca ptr, align 8
  %5 = alloca ptr, align 8
  %6 = alloca ptr, align 8
  %7 = alloca ptr, align 8
  %8 = alloca ptr, align 8
  %9 = alloca ptr, align 8
  %10 = alloca ptr, align 8
  %11 = alloca ptr, align 8
  %12 = alloca ptr, align 8
  %13 = alloca ptr, align 8
  %14 = alloca ptr, align 8
  %15 = alloca ptr, align 8
  %16 = alloca ptr, align 8
  %17 = alloca ptr, align 8
  %18 = alloca ptr, align 8
  %19 = alloca ptr, align 8
  %20 = alloca ptr, align 8
  %21 = alloca ptr, align 8
  %22 = alloca i64, align 8
  %23 = alloca i64, align 8
  %24 = alloca ptr, align 8
  store ptr %0, ptr %2, align 8, !tbaa !15
  call void @llvm.lifetime.start.p0(i64 8, ptr %3) #8
  %25 = load ptr, ptr %2, align 8, !tbaa !15
  %26 = getelementptr inbounds ptr, ptr %25, i64 0
  %27 = load ptr, ptr %26, align 8, !tbaa !4
  store ptr %27, ptr %3, align 8, !tbaa !4
  call void @llvm.lifetime.start.p0(i64 8, ptr %4) #8
  %28 = load ptr, ptr %2, align 8, !tbaa !15
  %29 = getelementptr inbounds ptr, ptr %28, i64 1
  %30 = load ptr, ptr %29, align 8, !tbaa !4
  store ptr %30, ptr %4, align 8, !tbaa !4
  call void @llvm.lifetime.start.p0(i64 8, ptr %5) #8
  %31 = load ptr, ptr %2, align 8, !tbaa !15
  %32 = getelementptr inbounds ptr, ptr %31, i64 2
  %33 = load ptr, ptr %32, align 8, !tbaa !4
  store ptr %33, ptr %5, align 8, !tbaa !4
  call void @llvm.lifetime.start.p0(i64 8, ptr %6) #8
  %34 = load ptr, ptr %2, align 8, !tbaa !15
  %35 = getelementptr inbounds ptr, ptr %34, i64 3
  %36 = load ptr, ptr %35, align 8, !tbaa !4
  store ptr %36, ptr %6, align 8, !tbaa !4
  call void @llvm.lifetime.start.p0(i64 8, ptr %7) #8
  %37 = load ptr, ptr %2, align 8, !tbaa !15
  %38 = getelementptr inbounds ptr, ptr %37, i64 4
  %39 = load ptr, ptr %38, align 8, !tbaa !4
  store ptr %39, ptr %7, align 8, !tbaa !4
  call void @llvm.lifetime.start.p0(i64 8, ptr %8) #8
  %40 = load ptr, ptr %2, align 8, !tbaa !15
  %41 = getelementptr inbounds ptr, ptr %40, i64 5
  %42 = load ptr, ptr %41, align 8, !tbaa !4
  store ptr %42, ptr %8, align 8, !tbaa !4
  call void @llvm.lifetime.start.p0(i64 8, ptr %9) #8
  %43 = load ptr, ptr %2, align 8, !tbaa !15
  %44 = getelementptr inbounds ptr, ptr %43, i64 6
  %45 = load ptr, ptr %44, align 8, !tbaa !4
  store ptr %45, ptr %9, align 8, !tbaa !4
  call void @llvm.lifetime.start.p0(i64 8, ptr %10) #8
  %46 = load ptr, ptr %2, align 8, !tbaa !15
  %47 = getelementptr inbounds ptr, ptr %46, i64 7
  %48 = load ptr, ptr %47, align 8, !tbaa !4
  store ptr %48, ptr %10, align 8, !tbaa !4
  call void @llvm.lifetime.start.p0(i64 8, ptr %11) #8
  %49 = load ptr, ptr %2, align 8, !tbaa !15
  %50 = getelementptr inbounds ptr, ptr %49, i64 8
  %51 = load ptr, ptr %50, align 8, !tbaa !4
  store ptr %51, ptr %11, align 8, !tbaa !4
  call void @llvm.lifetime.start.p0(i64 8, ptr %12) #8
  %52 = load ptr, ptr %2, align 8, !tbaa !15
  %53 = getelementptr inbounds ptr, ptr %52, i64 9
  %54 = load ptr, ptr %53, align 8, !tbaa !4
  store ptr %54, ptr %12, align 8, !tbaa !4
  call void @llvm.lifetime.start.p0(i64 8, ptr %13) #8
  %55 = load ptr, ptr %2, align 8, !tbaa !15
  %56 = getelementptr inbounds ptr, ptr %55, i64 10
  %57 = load ptr, ptr %56, align 8, !tbaa !4
  store ptr %57, ptr %13, align 8, !tbaa !4
  call void @llvm.lifetime.start.p0(i64 8, ptr %14) #8
  %58 = load ptr, ptr %2, align 8, !tbaa !15
  %59 = getelementptr inbounds ptr, ptr %58, i64 11
  %60 = load ptr, ptr %59, align 8, !tbaa !4
  store ptr %60, ptr %14, align 8, !tbaa !4
  call void @llvm.lifetime.start.p0(i64 8, ptr %15) #8
  %61 = load ptr, ptr %2, align 8, !tbaa !15
  %62 = getelementptr inbounds ptr, ptr %61, i64 12
  %63 = load ptr, ptr %62, align 8, !tbaa !4
  store ptr %63, ptr %15, align 8, !tbaa !4
  call void @llvm.lifetime.start.p0(i64 8, ptr %16) #8
  %64 = load ptr, ptr %2, align 8, !tbaa !15
  %65 = getelementptr inbounds ptr, ptr %64, i64 13
  %66 = load ptr, ptr %65, align 8, !tbaa !4
  store ptr %66, ptr %16, align 8, !tbaa !4
  call void @llvm.lifetime.start.p0(i64 8, ptr %17) #8
  %67 = load ptr, ptr %2, align 8, !tbaa !15
  %68 = getelementptr inbounds ptr, ptr %67, i64 14
  %69 = load ptr, ptr %68, align 8, !tbaa !4
  store ptr %69, ptr %17, align 8, !tbaa !4
  call void @llvm.lifetime.start.p0(i64 8, ptr %18) #8
  %70 = load ptr, ptr %2, align 8, !tbaa !15
  %71 = getelementptr inbounds ptr, ptr %70, i64 15
  %72 = load ptr, ptr %71, align 8, !tbaa !4
  store ptr %72, ptr %18, align 8, !tbaa !4
  call void @llvm.lifetime.start.p0(i64 8, ptr %19) #8
  %73 = load ptr, ptr %2, align 8, !tbaa !15
  %74 = getelementptr inbounds ptr, ptr %73, i64 16
  %75 = load ptr, ptr %74, align 8, !tbaa !4
  store ptr %75, ptr %19, align 8, !tbaa !4
  call void @llvm.lifetime.start.p0(i64 8, ptr %20) #8
  %76 = load ptr, ptr %2, align 8, !tbaa !15
  %77 = getelementptr inbounds ptr, ptr %76, i64 17
  %78 = load ptr, ptr %77, align 8, !tbaa !4
  store ptr %78, ptr %20, align 8, !tbaa !4
  call void @llvm.lifetime.start.p0(i64 8, ptr %21) #8
  %79 = load ptr, ptr %2, align 8, !tbaa !15
  %80 = getelementptr inbounds ptr, ptr %79, i64 18
  %81 = load ptr, ptr %80, align 8, !tbaa !4
  store ptr %81, ptr %21, align 8, !tbaa !4
  br label %82

82:                                               ; preds = %1
  call void @llvm.lifetime.start.p0(i64 8, ptr %22) #8
  call void @llvm.lifetime.start.p0(i64 8, ptr %23) #8
  call void @llvm.lifetime.start.p0(i64 8, ptr %24) #8
  %83 = load ptr, ptr %10, align 8, !tbaa !4
  %84 = call i64 @lean_unbox_usize(ptr noundef %83)
  store i64 %84, ptr %22, align 8, !tbaa !8
  %85 = load ptr, ptr %10, align 8, !tbaa !4
  call void @lean_dec(ptr noundef %85)
  %86 = load ptr, ptr %11, align 8, !tbaa !4
  %87 = call i64 @lean_unbox_usize(ptr noundef %86)
  store i64 %87, ptr %23, align 8, !tbaa !8
  %88 = load ptr, ptr %11, align 8, !tbaa !4
  call void @lean_dec(ptr noundef %88)
  %89 = load ptr, ptr %3, align 8, !tbaa !4
  %90 = load ptr, ptr %4, align 8, !tbaa !4
  %91 = load ptr, ptr %5, align 8, !tbaa !4
  %92 = load ptr, ptr %6, align 8, !tbaa !4
  %93 = load ptr, ptr %7, align 8, !tbaa !4
  %94 = load ptr, ptr %8, align 8, !tbaa !4
  %95 = load ptr, ptr %9, align 8, !tbaa !4
  %96 = load i64, ptr %22, align 8, !tbaa !8
  %97 = load i64, ptr %23, align 8, !tbaa !8
  %98 = load ptr, ptr %12, align 8, !tbaa !4
  %99 = load ptr, ptr %13, align 8, !tbaa !4
  %100 = load ptr, ptr %14, align 8, !tbaa !4
  %101 = load ptr, ptr %15, align 8, !tbaa !4
  %102 = load ptr, ptr %16, align 8, !tbaa !4
  %103 = load ptr, ptr %17, align 8, !tbaa !4
  %104 = load ptr, ptr %18, align 8, !tbaa !4
  %105 = load ptr, ptr %19, align 8, !tbaa !4
  %106 = load ptr, ptr %20, align 8, !tbaa !4
  %107 = load ptr, ptr %21, align 8, !tbaa !4
  %108 = call ptr @l_Array_forIn_x27Unsafe_loop___at___private_Lean_Meta_Tactic_Grind_Arith_Cutsat_LeCnstr_0__Lean_Meta_Grind_Arith_Cutsat_findEq___spec__15(ptr noundef %89, ptr noundef %90, ptr noundef %91, ptr noundef %92, ptr noundef %93, ptr noundef %94, ptr noundef %95, i64 noundef %96, i64 noundef %97, ptr noundef %98, ptr noundef %99, ptr noundef %100, ptr noundef %101, ptr noundef %102, ptr noundef %103, ptr noundef %104, ptr noundef %105, ptr noundef %106, ptr noundef %107)
  store ptr %108, ptr %24, align 8, !tbaa !4
  %109 = load ptr, ptr %9, align 8, !tbaa !4
  call void @lean_dec(ptr noundef %109)
  %110 = load ptr, ptr %7, align 8, !tbaa !4
  call void @lean_dec(ptr noundef %110)
  %111 = load ptr, ptr %6, align 8, !tbaa !4
  call void @lean_dec(ptr noundef %111)
  %112 = load ptr, ptr %24, align 8, !tbaa !4
  call void @llvm.lifetime.end.p0(i64 8, ptr %24) #8
  call void @llvm.lifetime.end.p0(i64 8, ptr %23) #8
  call void @llvm.lifetime.end.p0(i64 8, ptr %22) #8
  call void @llvm.lifetime.end.p0(i64 8, ptr %21) #8
  call void @llvm.lifetime.end.p0(i64 8, ptr %20) #8
  call void @llvm.lifetime.end.p0(i64 8, ptr %19) #8
  call void @llvm.lifetime.end.p0(i64 8, ptr %18) #8
  call void @llvm.lifetime.end.p0(i64 8, ptr %17) #8
  call void @llvm.lifetime.end.p0(i64 8, ptr %16) #8
  call void @llvm.lifetime.end.p0(i64 8, ptr %15) #8
  call void @llvm.lifetime.end.p0(i64 8, ptr %14) #8
  call void @llvm.lifetime.end.p0(i64 8, ptr %13) #8
  call void @llvm.lifetime.end.p0(i64 8, ptr %12) #8
  call void @llvm.lifetime.end.p0(i64 8, ptr %11) #8
  call void @llvm.lifetime.end.p0(i64 8, ptr %10) #8
  call void @llvm.lifetime.end.p0(i64 8, ptr %9) #8
  call void @llvm.lifetime.end.p0(i64 8, ptr %8) #8
  call void @llvm.lifetime.end.p0(i64 8, ptr %7) #8
  call void @llvm.lifetime.end.p0(i64 8, ptr %6) #8
  call void @llvm.lifetime.end.p0(i64 8, ptr %5) #8
  call void @llvm.lifetime.end.p0(i64 8, ptr %4) #8
  call void @llvm.lifetime.end.p0(i64 8, ptr %3) #8
  ret ptr %112
}